target datalayout = "e-m:e-p270:32:32-p271:32:32-p272:64:64-i64:64-i128:128-f80:128-n8:16:32:64-S128"
target triple = "x86_64-pc-linux-gnu"

%struct.lua_State = type { i8, i8, i8, i8, i8, i8, i8, ptr, ptr, ptr, ptr, ptr, ptr, ptr, ptr, i32, i32, i16, i16, i32, ptr, ptr, ptr, ptr, ptr }
%struct.global_State = type { %struct.stringtable, ptr, ptr, i8, i8, ptr, ptr, ptr, i64, i64, i32, i32, i32, [40 x ptr], [40 x ptr], ptr, ptr, ptr, [256 x i64], ptr, %struct.UpVal, [11 x ptr], [11 x ptr], [21 x ptr], %struct.lua_TValue, %struct.lua_TValue, i32, ptr, i64, [4 x i64], %struct.lua_Callbacks, %struct.lua_ExecutionCallbacks, [128 x ptr], [128 x ptr], [128 x ptr], %struct.GCStats }
%struct.stringtable = type { ptr, i32, i32 }
%struct.UpVal = type { i8, i8, i8, i8, ptr, %union.anon }
%union.anon = type { %struct.anon }
%struct.anon = type { ptr, ptr, ptr }
%struct.lua_TValue = type { %union.Value, [1 x i32], i32 }
%union.Value = type { ptr }
%struct.lua_Callbacks = type { ptr, ptr, ptr, ptr, ptr, ptr, ptr, ptr, ptr, ptr }
%struct.lua_ExecutionCallbacks = type { ptr, ptr, ptr, ptr, ptr, ptr, ptr }
%struct.GCStats = type { [32 x i32], i32, i32, i64, i64, i64, double, double, double }
%struct.Udata = type { i8, i8, i8, i8, i32, ptr, %union.anon.0 }
%union.anon.0 = type { %union.L_Umaxalign }
%union.L_Umaxalign = type { double }

; Function Attrs: mustprogress uwtable
define hidden noundef ptr @_Z13luaU_newudataP9lua_Statemi(ptr noundef %0, i64 noundef %1, i32 noundef %2) #0 {
  %4 = alloca ptr, align 8
  %5 = alloca i64, align 8
  %6 = alloca i32, align 4
  %7 = alloca ptr, align 8
  store ptr %0, ptr %4, align 8, !tbaa !4
  store i64 %1, ptr %5, align 8, !tbaa !9
  store i32 %2, ptr %6, align 4, !tbaa !11
  %8 = load i64, ptr %5, align 8, !tbaa !9
  %9 = icmp ugt i64 %8, 2147483623
  br i1 %9, label %10, label %12

10:                                               ; preds = %3
  %11 = load ptr, ptr %4, align 8, !tbaa !4
  call void @_Z11luaM_toobigP9lua_State(ptr noundef %11) #5
  unreachable

12:                                               ; preds = %3
  call void @llvm.lifetime.start.p0(i64 8, ptr %7) #6
  %13 = load ptr, ptr %4, align 8, !tbaa !4
  %14 = load i64, ptr %5, align 8, !tbaa !9
  %15 = add i64 16, %14
  %16 = load ptr, ptr %4, align 8, !tbaa !4
  %17 = getelementptr inbounds nuw %struct.lua_State, ptr %16, i32 0, i32 4
  %18 = load i8, ptr %17, align 4, !tbaa !13
  %19 = call noundef ptr @_Z12luaM_newgco_P9lua_Statemh(ptr noundef %13, i64 noundef %15, i8 noundef zeroext %18)
  store ptr %19, ptr %7, align 8, !tbaa !24
  %20 = load ptr, ptr %4, align 8, !tbaa !4
  %21 = getelementptr inbounds nuw %struct.lua_State, ptr %20, i32 0, i32 9
  %22 = load ptr, ptr %21, align 8, !tbaa !26
  %23 = getelementptr inbounds nuw %struct.global_State, ptr %22, i32 0, i32 3
  %24 = load i8, ptr %23, align 8, !tbaa !27
  %25 = zext i8 %24 to i32
  %26 = and i32 %25, 3
  %27 = trunc i32 %26 to i8
  %28 = load ptr, ptr %7, align 8, !tbaa !24
  %29 = getelementptr inbounds nuw %struct.Udata, ptr %28, i32 0, i32 1
  store i8 %27, ptr %29, align 1, !tbaa !40
  %30 = load ptr, ptr %7, align 8, !tbaa !24
  %31 = getelementptr inbounds nuw %struct.Udata, ptr %30, i32 0, i32 0
  store i8 8, ptr %31, align 8, !tbaa !42
  %32 = load ptr, ptr %4, align 8, !tbaa !4
  %33 = getelementptr inbounds nuw %struct.lua_State, ptr %32, i32 0, i32 4
  %34 = load i8, ptr %33, align 4, !tbaa !13
  %35 = load ptr, ptr %7, align 8, !tbaa !24
  %36 = getelementptr inbounds nuw %struct.Udata, ptr %35, i32 0, i32 2
  store i8 %34, ptr %36, align 2, !tbaa !43
  %37 = load i64, ptr %5, align 8, !tbaa !9
  %38 = trunc i64 %37 to i32
  %39 = load ptr, ptr %7, align 8, !tbaa !24
  %40 = getelementptr inbounds nuw %struct.Udata, ptr %39, i32 0, i32 4
  store i32 %38, ptr %40, align 4, !tbaa !44
  %41 = load ptr, ptr %7, align 8, !tbaa !24
  %42 = getelementptr inbounds nuw %struct.Udata, ptr %41, i32 0, i32 5
  store ptr null, ptr %42, align 8, !tbaa !45
  %43 = load i32, ptr %6, align 4, !tbaa !11
  %44 = trunc i32 %43 to i8
  %45 = load ptr, ptr %7, align 8, !tbaa !24
  %46 = getelementptr inbounds nuw %struct.Udata, ptr %45, i32 0, i32 3
  store i8 %44, ptr %46, align 1, !tbaa !46
  %47 = load ptr, ptr %7, align 8, !tbaa !24
  call void @llvm.lifetime.end.p0(i64 8, ptr %7) #6
  ret ptr %47
}

; Function Attrs: noreturn
declare hidden void @_Z11luaM_toobigP9lua_State(ptr noundef) #1

; Function Attrs: nocallback nofree nosync nounwind willreturn memory(argmem: readwrite)
declare void @llvm.lifetime.start.p0(i64 immarg, ptr captures(none)) #2

declare hidden noundef ptr @_Z12luaM_newgco_P9lua_Statemh(ptr noundef, i64 noundef, i8 noundef zeroext) #3

; Function Attrs: nocallback nofree nosync nounwind willreturn memory(argmem: readwrite)
declare void @llvm.lifetime.end.p0(i64 immarg, ptr captures(none)) #2

; Function Attrs: mustprogress uwtable
define hidden void @_Z14luaU_freeudataP9lua_StateP5UdataP8lua_Page(ptr noundef %0, ptr noundef %1, ptr noundef %2) #0 {
  %4 = alloca ptr, align 8
  %5 = alloca ptr, align 8
  %6 = alloca ptr, align 8
  %7 = alloca ptr, align 8
  %8 = alloca ptr, align 8
  store ptr %0, ptr %4, align 8, !tbaa !4
  store ptr %1, ptr %5, align 8, !tbaa !24
  store ptr %2, ptr %6, align 8, !tbaa !47
  %9 = load ptr, ptr %5, align 8, !tbaa !24
  %10 = getelementptr inbounds nuw %struct.Udata, ptr %9, i32 0, i32 3
  %11 = load i8, ptr %10, align 1, !tbaa !46
  %12 = zext i8 %11 to i32
  %13 = icmp slt i32 %12, 128
  br i1 %13, label %14, label %34

14:                                               ; preds = %3
  call void @llvm.lifetime.start.p0(i64 8, ptr %7) #6
  %15 = load ptr, ptr %4, align 8, !tbaa !4
  %16 = getelementptr inbounds nuw %struct.lua_State, ptr %15, i32 0, i32 9
  %17 = load ptr, ptr %16, align 8, !tbaa !26
  %18 = getelementptr inbounds nuw %struct.global_State, ptr %17, i32 0, i32 32
  %19 = load ptr, ptr %5, align 8, !tbaa !24
  %20 = getelementptr inbounds nuw %struct.Udata, ptr %19, i32 0, i32 3
  %21 = load i8, ptr %20, align 1, !tbaa !46
  %22 = zext i8 %21 to i64
  %23 = getelementptr inbounds nuw [128 x ptr], ptr %18, i64 0, i64 %22
  %24 = load ptr, ptr %23, align 8, !tbaa !48
  store ptr %24, ptr %7, align 8, !tbaa !48
  %25 = load ptr, ptr %7, align 8, !tbaa !48
  %26 = icmp ne ptr %25, null
  br i1 %26, label %27, label %33

27:                                               ; preds = %14
  %28 = load ptr, ptr %7, align 8, !tbaa !48
  %29 = load ptr, ptr %4, align 8, !tbaa !4
  %30 = load ptr, ptr %5, align 8, !tbaa !24
  %31 = getelementptr inbounds nuw %struct.Udata, ptr %30, i32 0, i32 6
  %32 = getelementptr inbounds [1 x i8], ptr %31, i64 0, i64 0
  call void %28(ptr noundef %29, ptr noundef %32)
  br label %33

33:                                               ; preds = %27, %14
  call void @llvm.lifetime.end.p0(i64 8, ptr %7) #6
  br label %58

34:                                               ; preds = %3
  %35 = load ptr, ptr %5, align 8, !tbaa !24
  %36 = getelementptr inbounds nuw %struct.Udata, ptr %35, i32 0, i32 3
  %37 = load i8, ptr %36, align 1, !tbaa !46
  %38 = zext i8 %37 to i32
  %39 = icmp eq i32 %38, 128
  br i1 %39, label %40, label %57

40:                                               ; preds = %34
  call void @llvm.lifetime.start.p0(i64 8, ptr %8) #6
  store ptr null, ptr %8, align 8, !tbaa !48
  %41 = load ptr, ptr %5, align 8, !tbaa !24
  %42 = getelementptr inbounds nuw %struct.Udata, ptr %41, i32 0, i32 6
  %43 = load ptr, ptr %5, align 8, !tbaa !24
  %44 = getelementptr inbounds nuw %struct.Udata, ptr %43, i32 0, i32 4
  %45 = load i32, ptr %44, align 4, !tbaa !44
  %46 = sext i32 %45 to i64
  %47 = getelementptr inbounds [1 x i8], ptr %42, i64 %46
  %48 = getelementptr inbounds [1 x i8], ptr %47, i64 -8
  call void @llvm.memcpy.p0.p0.i64(ptr align 8 %8, ptr align 1 %48, i64 8, i1 false)
  %49 = load ptr, ptr %8, align 8, !tbaa !48
  %50 = icmp ne ptr %49, null
  br i1 %50, label %51, label %56

51:                                               ; preds = %40
  %52 = load ptr, ptr %8, align 8, !tbaa !48
  %53 = load ptr, ptr %5, align 8, !tbaa !24
  %54 = getelementptr inbounds nuw %struct.Udata, ptr %53, i32 0, i32 6
  %55 = getelementptr inbounds [1 x i8], ptr %54, i64 0, i64 0
  call void %52(ptr noundef %55)
  br label %56

56:                                               ; preds = %51, %40
  call void @llvm.lifetime.end.p0(i64 8, ptr %8) #6
  br label %57

57:                                               ; preds = %56, %34
  br label %58

58:                                               ; preds = %57, %33
  %59 = load ptr, ptr %4, align 8, !tbaa !4
  %60 = load ptr, ptr %5, align 8, !tbaa !24
  %61 = getelementptr inbounds %struct.Udata, ptr %60, i64 0
  %62 = load ptr, ptr %5, align 8, !tbaa !24
  %63 = getelementptr inbounds nuw %struct.Udata, ptr %62, i32 0, i32 4
  %64 = load i32, ptr %63, align 4, !tbaa !44
  %65 = sext i32 %64 to i64
  %66 = add i64 16, %65
  %67 = load ptr, ptr %5, align 8, !tbaa !24
  %68 = getelementptr inbounds nuw %struct.Udata, ptr %67, i32 0, i32 2
  %69 = load i8, ptr %68, align 2, !tbaa !43
  %70 = load ptr, ptr %6, align 8, !tbaa !47
  call void @_Z13luaM_freegco_P9lua_StateP8GCObjectmhP8lua_Page(ptr noundef %59, ptr noundef %61, i64 noundef %66, i8 noundef zeroext %69, ptr noundef %70)
  ret void
}

; Function Attrs: nocallback nofree nounwind willreturn memory(argmem: readwrite)
declare void @llvm.memcpy.p0.p0.i64(ptr noalias writeonly captures(none), ptr noalias readonly captures(none), i64, i1 immarg) #4

declare hidden void @_Z13luaM_freegco_P9lua_StateP8GCObjectmhP8lua_Page(ptr noundef, ptr noundef, i64 noundef, i8 noundef zeroext, ptr noundef) #3


!llvm.module.flags = !{!0, !1, !2, !3}

!0 = !{i32 1, !"wchar_size", i32 4}
!1 = !{i32 8, !"PIC Level", i32 2}
!2 = !{i32 7, !"PIE Level", i32 2}
!3 = !{i32 7, !"uwtable", i32 2}
!4 = !{!5, !5, i64 0}
!5 = !{!"p1 _ZTS9lua_State", !6, i64 0}
!6 = !{!"any pointer", !7, i64 0}
!7 = !{!"omnipotent char", !8, i64 0}
!8 = !{!"Simple C++ TBAA"}
!9 = !{!10, !10, i64 0}
!10 = !{!"long", !7, i64 0}
!11 = !{!12, !12, i64 0}
!12 = !{!"int", !7, i64 0}
!13 = !{!14, !7, i64 4}
!14 = !{!"_ZTS9lua_State", !7, i64 0, !7, i64 1, !7, i64 2, !7, i64 3, !7, i64 4, !15, i64 5, !15, i64 6, !16, i64 8, !16, i64 16, !17, i64 24, !18, i64 32, !16, i64 40, !16, i64 48, !18, i64 56, !18, i64 64, !12, i64 72, !12, i64 76, !19, i64 80, !19, i64 82, !12, i64 84, !20, i64 88, !21, i64 96, !22, i64 104, !23, i64 112, !6, i64 120}
!15 = !{!"bool", !7, i64 0}
!16 = !{!"p1 _ZTS10lua_TValue", !6, i64 0}
!17 = !{!"p1 _ZTS12global_State", !6, i64 0}
!18 = !{!"p1 _ZTS8CallInfo", !6, i64 0}
!19 = !{!"short", !7, i64 0}
!20 = !{!"p1 _ZTS8LuaTable", !6, i64 0}
!21 = !{!"p1 _ZTS5UpVal", !6, i64 0}
!22 = !{!"p1 _ZTS8GCObject", !6, i64 0}
!23 = !{!"p1 _ZTS7TString", !6, i64 0}
!24 = !{!25, !25, i64 0}
!25 = !{!"p1 _ZTS5Udata", !6, i64 0}
!26 = !{!14, !17, i64 24}
!27 = !{!28, !7, i64 32}
!28 = !{!"_ZTS12global_State", !29, i64 0, !6, i64 16, !6, i64 24, !7, i64 32, !7, i64 33, !22, i64 40, !22, i64 48, !22, i64 56, !10, i64 64, !10, i64 72, !12, i64 80, !12, i64 84, !12, i64 88, !7, i64 96, !7, i64 416, !32, i64 736, !32, i64 744, !32, i64 752, !7, i64 760, !5, i64 2808, !33, i64 2816, !7, i64 2856, !7, i64 2944, !7, i64 3032, !34, i64 3200, !34, i64 3216, !12, i64 3232, !35, i64 3240, !10, i64 3248, !7, i64 3256, !36, i64 3288, !37, i64 3368, !7, i64 3424, !7, i64 4448, !7, i64 5472, !38, i64 6496}
!29 = !{!"_ZTS11stringtable", !30, i64 0, !12, i64 8, !12, i64 12}
!30 = !{!"p2 _ZTS7TString", !31, i64 0}
!31 = !{!"any p2 pointer", !6, i64 0}
!32 = !{!"p1 _ZTS8lua_Page", !6, i64 0}
!33 = !{!"_ZTS5UpVal", !7, i64 0, !7, i64 1, !7, i64 2, !7, i64 3, !16, i64 8, !7, i64 16}
!34 = !{!"_ZTS10lua_TValue", !7, i64 0, !7, i64 8, !12, i64 12}
!35 = !{!"p1 _ZTS10lua_jmpbuf", !6, i64 0}
!36 = !{!"_ZTS13lua_Callbacks", !6, i64 0, !6, i64 8, !6, i64 16, !6, i64 24, !6, i64 32, !6, i64 40, !6, i64 48, !6, i64 56, !6, i64 64, !6, i64 72}
!37 = !{!"_ZTS22lua_ExecutionCallbacks", !6, i64 0, !6, i64 8, !6, i64 16, !6, i64 24, !6, i64 32, !6, i64 40, !6, i64 48}
!38 = !{!"_ZTS7GCStats", !7, i64 0, !12, i64 128, !12, i64 132, !10, i64 136, !10, i64 144, !10, i64 152, !39, i64 160, !39, i64 168, !39, i64 176}
!39 = !{!"double", !7, i64 0}
!40 = !{!41, !7, i64 1}
!41 = !{!"_ZTS5Udata", !7, i64 0, !7, i64 1, !7, i64 2, !7, i64 3, !12, i64 4, !20, i64 8, !7, i64 16}
!42 = !{!41, !7, i64 0}
!43 = !{!41, !7, i64 2}
!44 = !{!41, !12, i64 4}
!45 = !{!41, !20, i64 8}
!46 = !{!41, !7, i64 3}
!47 = !{!32, !32, i64 0}
!48 = !{!6, !6, i64 0}
