; ModuleID = 'bench/luau/original/ludata.ll'
source_filename = "bench/luau/original/ludata.ll"
target datalayout = "e-m:e-p270:32:32-p271:32:32-p272:64:64-i64:64-i128:128-f80:128-n8:16:32:64-S128"
target triple = "x86_64-pc-linux-gnu"

; Function Attrs: mustprogress uwtable
define hidden noundef ptr @_Z13luaU_newudataP9lua_Statemi(ptr noundef %0, i64 noundef %1, i32 noundef %2) local_unnamed_addr #0 {
  %4 = icmp ugt i64 %1, 2147483623
  br i1 %4, label %5, label %6

5:                                                ; preds = %3
  tail call void @_Z11luaM_toobigP9lua_State(ptr noundef %0) #3
  unreachable

6:                                                ; preds = %3
  %7 = add nuw nsw i64 %1, 16
  %8 = getelementptr inbounds nuw i8, ptr %0, i64 4
  %9 = load i8, ptr %8, align 4, !tbaa !4
  %10 = tail call noundef ptr @_Z12luaM_newgco_P9lua_Statemh(ptr noundef %0, i64 noundef %7, i8 noundef zeroext %9)
  %11 = getelementptr inbounds nuw i8, ptr %0, i64 24
  %12 = load ptr, ptr %11, align 8, !tbaa !19
  %13 = getelementptr inbounds nuw i8, ptr %12, i64 32
  %14 = load i8, ptr %13, align 8, !tbaa !20
  %15 = and i8 %14, 3
  %16 = getelementptr inbounds nuw i8, ptr %10, i64 1
  store i8 %15, ptr %16, align 1, !tbaa !35
  store i8 8, ptr %10, align 8, !tbaa !37
  %17 = load i8, ptr %8, align 4, !tbaa !4
  %18 = getelementptr inbounds nuw i8, ptr %10, i64 2
  store i8 %17, ptr %18, align 2, !tbaa !38
  %19 = trunc nuw nsw i64 %1 to i32
  %20 = getelementptr inbounds nuw i8, ptr %10, i64 4
  store i32 %19, ptr %20, align 4, !tbaa !39
  %21 = getelementptr inbounds nuw i8, ptr %10, i64 8
  store ptr null, ptr %21, align 8, !tbaa !40
  %22 = trunc i32 %2 to i8
  %23 = getelementptr inbounds nuw i8, ptr %10, i64 3
  store i8 %22, ptr %23, align 1, !tbaa !41
  ret ptr %10
}

; Function Attrs: noreturn
declare hidden void @_Z11luaM_toobigP9lua_State(ptr noundef) local_unnamed_addr #1

declare hidden noundef ptr @_Z12luaM_newgco_P9lua_Statemh(ptr noundef, i64 noundef, i8 noundef zeroext) local_unnamed_addr #2

; Function Attrs: mustprogress uwtable
define hidden void @_Z14luaU_freeudataP9lua_StateP5UdataP8lua_Page(ptr noundef %0, ptr noundef %1, ptr noundef %2) local_unnamed_addr #0 {
  %4 = getelementptr inbounds nuw i8, ptr %1, i64 3
  %5 = load i8, ptr %4, align 1, !tbaa !41
  %6 = icmp sgt i8 %5, -1
  br i1 %6, label %7, label %16

7:                                                ; preds = %3
  %8 = getelementptr inbounds nuw i8, ptr %0, i64 24
  %9 = load ptr, ptr %8, align 8, !tbaa !19
  %10 = getelementptr inbounds nuw i8, ptr %9, i64 3424
  %11 = zext nneg i8 %5 to i64
  %12 = getelementptr inbounds nuw [128 x ptr], ptr %10, i64 0, i64 %11
  %13 = load ptr, ptr %12, align 8, !tbaa !42
  %.not19 = icmp eq ptr %13, null
  br i1 %.not19, label %26, label %14

14:                                               ; preds = %7
  %15 = getelementptr inbounds nuw i8, ptr %1, i64 16
  tail call void %13(ptr noundef nonnull %0, ptr noundef nonnull %15)
  br label %26

16:                                               ; preds = %3
  %17 = icmp eq i8 %5, -128
  br i1 %17, label %18, label %26

18:                                               ; preds = %16
  %19 = getelementptr inbounds nuw i8, ptr %1, i64 16
  %20 = getelementptr inbounds nuw i8, ptr %1, i64 4
  %21 = load i32, ptr %20, align 4, !tbaa !39
  %22 = sext i32 %21 to i64
  %23 = getelementptr inbounds [1 x i8], ptr %19, i64 %22
  %24 = getelementptr inbounds i8, ptr %23, i64 -8
  %.0.copyload = load ptr, ptr %24, align 1
  %.not = icmp eq ptr %.0.copyload, null
  br i1 %.not, label %26, label %25

25:                                               ; preds = %18
  tail call void %.0.copyload(ptr noundef nonnull %19)
  br label %26

26:                                               ; preds = %18, %25, %7, %14, %16
  %27 = getelementptr inbounds nuw i8, ptr %1, i64 4
  %28 = load i32, ptr %27, align 4, !tbaa !39
  %29 = sext i32 %28 to i64
  %30 = add nsw i64 %29, 16
  %31 = getelementptr inbounds nuw i8, ptr %1, i64 2
  %32 = load i8, ptr %31, align 2, !tbaa !38
  tail call void @_Z13luaM_freegco_P9lua_StateP8GCObjectmhP8lua_Page(ptr noundef %0, ptr noundef nonnull %1, i64 noundef %30, i8 noundef zeroext %32, ptr noundef %2)
  ret void
}

declare hidden void @_Z13luaM_freegco_P9lua_StateP8GCObjectmhP8lua_Page(ptr noundef, ptr noundef, i64 noundef, i8 noundef zeroext, ptr noundef) local_unnamed_addr #2


!llvm.module.flags = !{!0, !1, !2, !3}

!0 = !{i32 1, !"wchar_size", i32 4}
!1 = !{i32 8, !"PIC Level", i32 2}
!2 = !{i32 7, !"PIE Level", i32 2}
!3 = !{i32 7, !"uwtable", i32 2}
!4 = !{!5, !6, i64 4}
!5 = !{!"_ZTS9lua_State", !6, i64 0, !6, i64 1, !6, i64 2, !6, i64 3, !6, i64 4, !8, i64 5, !8, i64 6, !9, i64 8, !9, i64 16, !11, i64 24, !12, i64 32, !9, i64 40, !9, i64 48, !12, i64 56, !12, i64 64, !13, i64 72, !13, i64 76, !14, i64 80, !14, i64 82, !13, i64 84, !15, i64 88, !16, i64 96, !17, i64 104, !18, i64 112, !10, i64 120}
!6 = !{!"omnipotent char", !7, i64 0}
!7 = !{!"Simple C++ TBAA"}
!8 = !{!"bool", !6, i64 0}
!9 = !{!"p1 _ZTS10lua_TValue", !10, i64 0}
!10 = !{!"any pointer", !6, i64 0}
!11 = !{!"p1 _ZTS12global_State", !10, i64 0}
!12 = !{!"p1 _ZTS8CallInfo", !10, i64 0}
!13 = !{!"int", !6, i64 0}
!14 = !{!"short", !6, i64 0}
!15 = !{!"p1 _ZTS8LuaTable", !10, i64 0}
!16 = !{!"p1 _ZTS5UpVal", !10, i64 0}
!17 = !{!"p1 _ZTS8GCObject", !10, i64 0}
!18 = !{!"p1 _ZTS7TString", !10, i64 0}
!19 = !{!5, !11, i64 24}
!20 = !{!21, !6, i64 32}
!21 = !{!"_ZTS12global_State", !22, i64 0, !10, i64 16, !10, i64 24, !6, i64 32, !6, i64 33, !17, i64 40, !17, i64 48, !17, i64 56, !25, i64 64, !25, i64 72, !13, i64 80, !13, i64 84, !13, i64 88, !6, i64 96, !6, i64 416, !26, i64 736, !26, i64 744, !26, i64 752, !6, i64 760, !27, i64 2808, !28, i64 2816, !6, i64 2856, !6, i64 2944, !6, i64 3032, !29, i64 3200, !29, i64 3216, !13, i64 3232, !30, i64 3240, !25, i64 3248, !6, i64 3256, !31, i64 3288, !32, i64 3368, !6, i64 3424, !6, i64 4448, !6, i64 5472, !33, i64 6496}
!22 = !{!"_ZTS11stringtable", !23, i64 0, !13, i64 8, !13, i64 12}
!23 = !{!"p2 _ZTS7TString", !24, i64 0}
!24 = !{!"any p2 pointer", !10, i64 0}
!25 = !{!"long", !6, i64 0}
!26 = !{!"p1 _ZTS8lua_Page", !10, i64 0}
!27 = !{!"p1 _ZTS9lua_State", !10, i64 0}
!28 = !{!"_ZTS5UpVal", !6, i64 0, !6, i64 1, !6, i64 2, !6, i64 3, !9, i64 8, !6, i64 16}
!29 = !{!"_ZTS10lua_TValue", !6, i64 0, !6, i64 8, !13, i64 12}
!30 = !{!"p1 _ZTS10lua_jmpbuf", !10, i64 0}
!31 = !{!"_ZTS13lua_Callbacks", !10, i64 0, !10, i64 8, !10, i64 16, !10, i64 24, !10, i64 32, !10, i64 40, !10, i64 48, !10, i64 56, !10, i64 64, !10, i64 72}
!32 = !{!"_ZTS22lua_ExecutionCallbacks", !10, i64 0, !10, i64 8, !10, i64 16, !10, i64 24, !10, i64 32, !10, i64 40, !10, i64 48}
!33 = !{!"_ZTS7GCStats", !6, i64 0, !13, i64 128, !13, i64 132, !25, i64 136, !25, i64 144, !25, i64 152, !34, i64 160, !34, i64 168, !34, i64 176}
!34 = !{!"double", !6, i64 0}
!35 = !{!36, !6, i64 1}
!36 = !{!"_ZTS5Udata", !6, i64 0, !6, i64 1, !6, i64 2, !6, i64 3, !13, i64 4, !15, i64 8, !6, i64 16}
!37 = !{!36, !6, i64 0}
!38 = !{!36, !6, i64 2}
!39 = !{!36, !13, i64 4}
!40 = !{!36, !15, i64 8}
!41 = !{!36, !6, i64 3}
!42 = !{!10, !10, i64 0}
